; Function Attrs: mustprogress uwtable
define internal noundef zeroext i1 @_ZN12_GLOBAL__N_121TraceEnableModeHelperERSt8optionalIN19cmCMakePresetsGraph15TraceEnableModeEEPKN4Json5ValueEP11cmJSONState(ptr nocapture noundef nonnull align 4 dereferenceable(8) %0, ptr noundef %1, ptr noundef %2) #3 personality ptr @__gxx_personality_v0 {
  %4 = alloca %"class.std::__cxx11::basic_string", align 8
  %5 = alloca %"class.std::__cxx11::basic_string", align 8
  %6 = alloca %"class.std::__cxx11::basic_string", align 8
  %.not = icmp eq ptr %1, null
  br i1 %.not, label %7, label %12

7:                                                ; preds = %3
  %8 = getelementptr inbounds i8, ptr %0, i64 4
  %9 = load i8, ptr %8, align 4
  %10 = and i8 %9, 1
  %.not.i.i.i = icmp eq i8 %10, 0
  br i1 %.not.i.i.i, label %_ZNSt8optionalIN19cmCMakePresetsGraph15TraceEnableModeEEaSESt9nullopt_t.exit, label %11

11:                                               ; preds = %7
  store i8 0, ptr %8, align 4
  br label %_ZNSt8optionalIN19cmCMakePresetsGraph15TraceEnableModeEEaSESt9nullopt_t.exit

12:                                               ; preds = %3
  %13 = tail call noundef zeroext i1 @_ZNK4Json5Value8isStringEv(ptr noundef nonnull align 8 dereferenceable(40) %1)
  br i1 %13, label %15, label %14

14:                                               ; preds = %12
  tail call void @_ZN20cmCMakePresetsErrors14INVALID_PRESETEPKN4Json5ValueEP11cmJSONState(ptr noundef nonnull %1, ptr noundef %2)
  br label %_ZNSt8optionalIN19cmCMakePresetsGraph15TraceEnableModeEEaSESt9nullopt_t.exit

15:                                               ; preds = %12
  call void @_ZNK4Json5Value8asStringB5cxx11Ev(ptr dead_on_unwind nonnull writable sret(%"class.std::__cxx11::basic_string") align 8 %4, ptr noundef nonnull align 8 dereferenceable(40) %1)
  %16 = call noundef i32 @_ZNKSt7__cxx1112basic_stringIcSt11char_traitsIcESaIcEE7compareEPKc(ptr noundef nonnull align 8 dereferenceable(32) %4, ptr noundef nonnull @.str.53) #21
  %17 = icmp eq i32 %16, 0
  call void @_ZNSt7__cxx1112basic_stringIcSt11char_traitsIcESaIcEED1Ev(ptr noundef nonnull align 8 dereferenceable(32) %4) #21
  br i1 %17, label %18, label %19

18:                                               ; preds = %15
  store i64 4294967297, ptr %0, align 4
  br label %_ZNSt8optionalIN19cmCMakePresetsGraph15TraceEnableModeEEaSESt9nullopt_t.exit

19:                                               ; preds = %15
  call void @_ZNK4Json5Value8asStringB5cxx11Ev(ptr dead_on_unwind nonnull writable sret(%"class.std::__cxx11::basic_string") align 8 %5, ptr noundef nonnull align 8 dereferenceable(40) %1)
  %20 = call noundef i32 @_ZNKSt7__cxx1112basic_stringIcSt11char_traitsIcESaIcEE7compareEPKc(ptr noundef nonnull align 8 dereferenceable(32) %5, ptr noundef nonnull @.str.54) #21
  %21 = icmp eq i32 %20, 0
  call void @_ZNSt7__cxx1112basic_stringIcSt11char_traitsIcESaIcEED1Ev(ptr noundef nonnull align 8 dereferenceable(32) %5) #21
  br i1 %21, label %22, label %23

22:                                               ; preds = %19
  store i64 4294967296, ptr %0, align 4
  br label %_ZNSt8optionalIN19cmCMakePresetsGraph15TraceEnableModeEEaSESt9nullopt_t.exit

23:                                               ; preds = %19
  call void @_ZNK4Json5Value8asStringB5cxx11Ev(ptr dead_on_unwind nonnull writable sret(%"class.std::__cxx11::basic_string") align 8 %6, ptr noundef nonnull align 8 dereferenceable(40) %1)
  %24 = call noundef i32 @_ZNKSt7__cxx1112basic_stringIcSt11char_traitsIcESaIcEE7compareEPKc(ptr noundef nonnull align 8 dereferenceable(32) %6, ptr noundef nonnull @.str.55) #21
  %25 = icmp eq i32 %24, 0
  call void @_ZNSt7__cxx1112basic_stringIcSt11char_traitsIcESaIcEED1Ev(ptr noundef nonnull align 8 dereferenceable(32) %6) #21
  br i1 %25, label %26, label %27

26:                                               ; preds = %23
  store i64 4294967298, ptr %0, align 4
  br label %_ZNSt8optionalIN19cmCMakePresetsGraph15TraceEnableModeEEaSESt9nullopt_t.exit

27:                                               ; preds = %23
  call void @_ZN20cmCMakePresetsErrors14INVALID_PRESETEPKN4Json5ValueEP11cmJSONState(ptr noundef nonnull %1, ptr noundef %2)
  br label %_ZNSt8optionalIN19cmCMakePresetsGraph15TraceEnableModeEEaSESt9nullopt_t.exit

_ZNSt8optionalIN19cmCMakePresetsGraph15TraceEnableModeEEaSESt9nullopt_t.exit: ; preds = %11, %7, %18, %26, %22, %27, %14
  %.0 = phi i1 [ false, %27 ], [ false, %14 ], [ true, %22 ], [ true, %26 ], [ true, %18 ], [ true, %7 ], [ true, %11 ]
  ret i1 %.0
}